; Function Attrs: mustprogress nounwind uwtable
define dso_local void @_ZN4node29DebuggingArrayBufferAllocator17UnregisterPointerEPvm(ptr noundef nonnull align 8 dereferenceable(128) %this, ptr noundef %data, i64 noundef %size) unnamed_addr #3 align 2 {
entry:
  %mutex_ = getelementptr inbounds i8, ptr %this, i64 32
  tail call void @uv_mutex_lock(ptr noundef nonnull %mutex_) #12
  %total_mem_usage_.i = getelementptr inbounds i8, ptr %this, i64 16
  %0 = atomicrmw sub ptr %total_mem_usage_.i, i64 %size monotonic, align 8
  tail call void @_ZN4node29DebuggingArrayBufferAllocator25UnregisterPointerInternalEPvm(ptr noundef nonnull align 8 dereferenceable(128) %this, ptr noundef %data, i64 noundef %size)
  tail call void @uv_mutex_unlock(ptr noundef nonnull %mutex_) #12
  ret void
}